; Function Attrs: nounwind uwtable
define ptr @l_List_foldl___at_List_toSMap___spec__1___rarg(ptr noundef %0, ptr noundef %1, ptr noundef %2, ptr noundef %3) #0 {
  %5 = ptrtoint ptr %1 to i64
  %6 = and i64 %5, 1
  %.not60 = icmp eq i64 %6, 0
  %7 = ptrtoint ptr %0 to i64
  %8 = and i64 %7, 1
  %.not61 = icmp eq i64 %8, 0
  br label %9

9:                                                ; preds = %lean_inc.exit, %4
  %.023 = phi ptr [ %3, %4 ], [ %46, %lean_inc.exit ]
  %.0 = phi ptr [ %2, %4 ], [ %101, %lean_inc.exit ]
  %10 = ptrtoint ptr %.023 to i64
  %11 = and i64 %10, 1
  %.not.i38 = icmp eq i64 %11, 0
  br i1 %.not.i38, label %15, label %12

12:                                               ; preds = %9
  %13 = lshr i64 %10, 1
  %14 = trunc i64 %13 to i32
  br label %lean_obj_tag.exit

15:                                               ; preds = %9
  %16 = getelementptr i8, ptr %.023, i64 4
  %.val.i = load i32, ptr %16, align 4
  %17 = lshr i32 %.val.i, 24
  br label %lean_obj_tag.exit

lean_obj_tag.exit:                                ; preds = %12, %15
  %.0.i = phi i32 [ %14, %12 ], [ %17, %15 ]
  %18 = icmp eq i32 %.0.i, 0
  br i1 %18, label %19, label %34

19:                                               ; preds = %lean_obj_tag.exit
  br i1 %.not60, label %20, label %lean_dec.exit26

20:                                               ; preds = %19
  %21 = load i32, ptr %1, align 4, !tbaa !10
  %22 = icmp sgt i32 %21, 1
  br i1 %22, label %23, label %25, !prof !15

23:                                               ; preds = %20
  %24 = add nsw i32 %21, -1
  store i32 %24, ptr %1, align 4, !tbaa !10
  br label %lean_dec.exit26

25:                                               ; preds = %20
  %.not.i = icmp eq i32 %21, 0
  br i1 %.not.i, label %lean_dec.exit26, label %26

26:                                               ; preds = %25
  tail call void @lean_dec_ref_cold(ptr noundef nonnull %1) #3
  br label %lean_dec.exit26

lean_dec.exit26:                                  ; preds = %26, %25, %23, %19
  br i1 %.not61, label %27, label %lean_dec.exit25

27:                                               ; preds = %lean_dec.exit26
  %28 = load i32, ptr %0, align 4, !tbaa !10
  %29 = icmp sgt i32 %28, 1
  br i1 %29, label %30, label %32, !prof !15

30:                                               ; preds = %27
  %31 = add nsw i32 %28, -1
  store i32 %31, ptr %0, align 4, !tbaa !10
  br label %lean_dec.exit25

32:                                               ; preds = %27
  %.not.i32 = icmp eq i32 %28, 0
  br i1 %.not.i32, label %lean_dec.exit25, label %33

33:                                               ; preds = %32
  tail call void @lean_dec_ref_cold(ptr noundef nonnull %0) #3
  br label %lean_dec.exit25

lean_dec.exit25:                                  ; preds = %33, %32, %30, %lean_dec.exit26
  ret ptr %.0

34:                                               ; preds = %lean_obj_tag.exit
  %35 = getelementptr inbounds nuw i8, ptr %.023, i64 8
  %36 = load ptr, ptr %35, align 8, !tbaa !4
  %37 = ptrtoint ptr %36 to i64
  %38 = and i64 %37, 1
  %.not = icmp eq i64 %38, 0
  br i1 %.not, label %39, label %lean_inc.exit31

39:                                               ; preds = %34
  %.val.i39 = load i32, ptr %36, align 4, !tbaa !10
  %40 = icmp sgt i32 %.val.i39, 0
  br i1 %40, label %41, label %43, !prof !15

41:                                               ; preds = %39
  %42 = add nuw i32 %.val.i39, 1
  store i32 %42, ptr %36, align 4, !tbaa !10
  br label %lean_inc.exit31

43:                                               ; preds = %39
  %.not.i40 = icmp eq i32 %.val.i39, 0
  br i1 %.not.i40, label %lean_inc.exit31, label %44

44:                                               ; preds = %43
  tail call void @lean_inc_ref_cold(ptr noundef nonnull %36) #3
  br label %lean_inc.exit31

lean_inc.exit31:                                  ; preds = %44, %43, %41, %34
  %45 = getelementptr inbounds nuw i8, ptr %.023, i64 16
  %46 = load ptr, ptr %45, align 8, !tbaa !4
  %47 = ptrtoint ptr %46 to i64
  %48 = and i64 %47, 1
  %.not56 = icmp eq i64 %48, 0
  br i1 %.not56, label %49, label %lean_inc.exit30

49:                                               ; preds = %lean_inc.exit31
  %.val.i41 = load i32, ptr %46, align 4, !tbaa !10
  %50 = icmp sgt i32 %.val.i41, 0
  br i1 %50, label %51, label %53, !prof !15

51:                                               ; preds = %49
  %52 = add nuw i32 %.val.i41, 1
  store i32 %52, ptr %46, align 4, !tbaa !10
  br label %lean_inc.exit30

53:                                               ; preds = %49
  %.not.i42 = icmp eq i32 %.val.i41, 0
  br i1 %.not.i42, label %lean_inc.exit30, label %54

54:                                               ; preds = %53
  tail call void @lean_inc_ref_cold(ptr noundef nonnull %46) #3
  br label %lean_inc.exit30

lean_inc.exit30:                                  ; preds = %54, %53, %51, %lean_inc.exit31
  br i1 %.not.i38, label %55, label %lean_dec.exit24

55:                                               ; preds = %lean_inc.exit30
  %56 = load i32, ptr %.023, align 4, !tbaa !10
  %57 = icmp sgt i32 %56, 1
  br i1 %57, label %58, label %60, !prof !15

58:                                               ; preds = %55
  %59 = add nsw i32 %56, -1
  store i32 %59, ptr %.023, align 4, !tbaa !10
  br label %lean_dec.exit24

60:                                               ; preds = %55
  %.not.i34 = icmp eq i32 %56, 0
  br i1 %.not.i34, label %lean_dec.exit24, label %61

61:                                               ; preds = %60
  tail call void @lean_dec_ref_cold(ptr noundef nonnull %.023) #3
  br label %lean_dec.exit24

lean_dec.exit24:                                  ; preds = %61, %60, %58, %lean_inc.exit30
  %62 = getelementptr inbounds nuw i8, ptr %36, i64 8
  %63 = load ptr, ptr %62, align 8, !tbaa !4
  %64 = ptrtoint ptr %63 to i64
  %65 = and i64 %64, 1
  %.not58 = icmp eq i64 %65, 0
  br i1 %.not58, label %66, label %lean_inc.exit29

66:                                               ; preds = %lean_dec.exit24
  %.val.i44 = load i32, ptr %63, align 4, !tbaa !10
  %67 = icmp sgt i32 %.val.i44, 0
  br i1 %67, label %68, label %70, !prof !15

68:                                               ; preds = %66
  %69 = add nuw i32 %.val.i44, 1
  store i32 %69, ptr %63, align 4, !tbaa !10
  br label %lean_inc.exit29

70:                                               ; preds = %66
  %.not.i45 = icmp eq i32 %.val.i44, 0
  br i1 %.not.i45, label %lean_inc.exit29, label %71

71:                                               ; preds = %70
  tail call void @lean_inc_ref_cold(ptr noundef nonnull %63) #3
  br label %lean_inc.exit29

lean_inc.exit29:                                  ; preds = %71, %70, %68, %lean_dec.exit24
  %72 = getelementptr inbounds nuw i8, ptr %36, i64 16
  %73 = load ptr, ptr %72, align 8, !tbaa !4
  %74 = ptrtoint ptr %73 to i64
  %75 = and i64 %74, 1
  %.not59 = icmp eq i64 %75, 0
  br i1 %.not59, label %76, label %lean_inc.exit28

76:                                               ; preds = %lean_inc.exit29
  %.val.i47 = load i32, ptr %73, align 4, !tbaa !10
  %77 = icmp sgt i32 %.val.i47, 0
  br i1 %77, label %78, label %80, !prof !15

78:                                               ; preds = %76
  %79 = add nuw i32 %.val.i47, 1
  store i32 %79, ptr %73, align 4, !tbaa !10
  br label %lean_inc.exit28

80:                                               ; preds = %76
  %.not.i48 = icmp eq i32 %.val.i47, 0
  br i1 %.not.i48, label %lean_inc.exit28, label %81

81:                                               ; preds = %80
  tail call void @lean_inc_ref_cold(ptr noundef nonnull %73) #3
  br label %lean_inc.exit28

lean_inc.exit28:                                  ; preds = %81, %80, %78, %lean_inc.exit29
  br i1 %.not, label %82, label %lean_dec.exit

82:                                               ; preds = %lean_inc.exit28
  %83 = load i32, ptr %36, align 4, !tbaa !10
  %84 = icmp sgt i32 %83, 1
  br i1 %84, label %85, label %87, !prof !15

85:                                               ; preds = %82
  %86 = add nsw i32 %83, -1
  store i32 %86, ptr %36, align 4, !tbaa !10
  br label %lean_dec.exit

87:                                               ; preds = %82
  %.not.i36 = icmp eq i32 %83, 0
  br i1 %.not.i36, label %lean_dec.exit, label %88

88:                                               ; preds = %87
  tail call void @lean_dec_ref_cold(ptr noundef nonnull %36) #3
  br label %lean_dec.exit

lean_dec.exit:                                    ; preds = %88, %87, %85, %lean_inc.exit28
  br i1 %.not60, label %89, label %lean_inc.exit27

89:                                               ; preds = %lean_dec.exit
  %.val.i50 = load i32, ptr %1, align 4, !tbaa !10
  %90 = icmp sgt i32 %.val.i50, 0
  br i1 %90, label %91, label %93, !prof !15

91:                                               ; preds = %89
  %92 = add nuw i32 %.val.i50, 1
  store i32 %92, ptr %1, align 4, !tbaa !10
  br label %lean_inc.exit27

93:                                               ; preds = %89
  %.not.i51 = icmp eq i32 %.val.i50, 0
  br i1 %.not.i51, label %lean_inc.exit27, label %94

94:                                               ; preds = %93
  tail call void @lean_inc_ref_cold(ptr noundef nonnull %1) #3
  br label %lean_inc.exit27

lean_inc.exit27:                                  ; preds = %94, %93, %91, %lean_dec.exit
  br i1 %.not61, label %95, label %lean_inc.exit

95:                                               ; preds = %lean_inc.exit27
  %.val.i53 = load i32, ptr %0, align 4, !tbaa !10
  %96 = icmp sgt i32 %.val.i53, 0
  br i1 %96, label %97, label %99, !prof !15

97:                                               ; preds = %95
  %98 = add nuw i32 %.val.i53, 1
  store i32 %98, ptr %0, align 4, !tbaa !10
  br label %lean_inc.exit

99:                                               ; preds = %95
  %.not.i54 = icmp eq i32 %.val.i53, 0
  br i1 %.not.i54, label %lean_inc.exit, label %100

100:                                              ; preds = %99
  tail call void @lean_inc_ref_cold(ptr noundef nonnull %0) #3
  br label %lean_inc.exit

lean_inc.exit:                                    ; preds = %100, %99, %97, %lean_inc.exit27
  %101 = tail call ptr @l_Lean_SMap_insert___rarg(ptr noundef %0, ptr noundef %1, ptr noundef %.0, ptr noundef %63, ptr noundef %73)
  br label %9
}